; Function Attrs: nofree norecurse nosync nounwind memory(readwrite, inaccessiblemem: none) uwtable
define void @Gia_ManLoadValue(ptr noundef readonly captures(none) %0, ptr noundef readonly captures(none) %1) local_unnamed_addr #1 {
  %3 = getelementptr i8, ptr %0, i64 32
  %4 = getelementptr inbounds nuw i8, ptr %0, i64 24
  %5 = load i32, ptr %4, align 8
  %6 = icmp sgt i32 %5, 0
  br i1 %6, label %.lr.ph, label %.critedge

.lr.ph:                                           ; preds = %2
  %7 = getelementptr i8, ptr %1, i64 8
  br label %8

8:                                                ; preds = %.lr.ph, %9
  %indvars.iv = phi i64 [ 0, %.lr.ph ], [ %indvars.iv.next, %9 ]
  %.val = load ptr, ptr %3, align 8
  %.not = icmp eq ptr %.val, null
  br i1 %.not, label %.critedge, label %9

9:                                                ; preds = %8
  %.val8 = load ptr, ptr %7, align 8
  %10 = getelementptr inbounds nuw i32, ptr %.val8, i64 %indvars.iv
  %11 = load i32, ptr %10, align 4
  %12 = getelementptr inbounds nuw %struct.Gia_Obj_t_, ptr %.val, i64 %indvars.iv, i32 1
  store i32 %11, ptr %12, align 4
  %indvars.iv.next = add nuw nsw i64 %indvars.iv, 1
  %13 = load i32, ptr %4, align 8
  %14 = sext i32 %13 to i64
  %15 = icmp slt i64 %indvars.iv.next, %14
  br i1 %15, label %8, label %.critedge, !llvm.loop !67

.critedge:                                        ; preds = %8, %9, %2
  ret void
}